target datalayout = "e-m:e-p270:32:32-p271:32:32-p272:64:64-i64:64-i128:128-f80:128-n8:16:32:64-S128"
target triple = "x86_64-unknown-linux-gnu"

%"class.icu_75::BMPSet" = type <{ ptr, [256 x i8], i8, [3 x i8], [64 x i32], [64 x i32], [18 x i32], [4 x i8], ptr, i32, [4 x i8] }>

@_ZTVN6icu_756BMPSetE = unnamed_addr constant { [5 x ptr] } { [5 x ptr] [ptr null, ptr @_ZTIN6icu_756BMPSetE, ptr @_ZN6icu_756BMPSetD1Ev, ptr @_ZN6icu_756BMPSetD0Ev, ptr @_ZNK6icu_756BMPSet8containsEi] }, align 8

; Function Attrs: mustprogress nounwind uwtable
define void @_ZN6icu_756BMPSetC2ERKS0_PKii(ptr noundef nonnull align 8 dereferenceable(868) %this, ptr noundef nonnull align 8 dereferenceable(868) %otherBMPSet, ptr noundef %newParentList, i32 noundef %newParentListLength) unnamed_addr #2 align 2 {
entry:
  %this.addr = alloca ptr, align 8
  %otherBMPSet.addr = alloca ptr, align 8
  %newParentList.addr = alloca ptr, align 8
  %newParentListLength.addr = alloca i32, align 4
  store ptr %this, ptr %this.addr, align 8
  store ptr %otherBMPSet, ptr %otherBMPSet.addr, align 8
  store ptr %newParentList, ptr %newParentList.addr, align 8
  store i32 %newParentListLength, ptr %newParentListLength.addr, align 4
  %this1 = load ptr, ptr %this.addr, align 8
  store ptr getelementptr inbounds ({ [5 x ptr] }, ptr @_ZTVN6icu_756BMPSetE, i32 0, i32 0, i32 2), ptr %this1, align 8
  %containsFFFD = getelementptr inbounds %"class.icu_75::BMPSet", ptr %this1, i32 0, i32 2
  %0 = load ptr, ptr %otherBMPSet.addr, align 8
  %containsFFFD2 = getelementptr inbounds %"class.icu_75::BMPSet", ptr %0, i32 0, i32 2
  %1 = load i8, ptr %containsFFFD2, align 8
  store i8 %1, ptr %containsFFFD, align 8
  %list = getelementptr inbounds %"class.icu_75::BMPSet", ptr %this1, i32 0, i32 8
  %2 = load ptr, ptr %newParentList.addr, align 8
  store ptr %2, ptr %list, align 8
  %listLength = getelementptr inbounds %"class.icu_75::BMPSet", ptr %this1, i32 0, i32 9
  %3 = load i32, ptr %newParentListLength.addr, align 4
  store i32 %3, ptr %listLength, align 8
  br label %do.body

do.body:                                          ; preds = %entry
  %latin1Contains = getelementptr inbounds %"class.icu_75::BMPSet", ptr %this1, i32 0, i32 1
  %arraydecay = getelementptr inbounds [256 x i8], ptr %latin1Contains, i64 0, i64 0
  %4 = load ptr, ptr %otherBMPSet.addr, align 8
  %latin1Contains3 = getelementptr inbounds %"class.icu_75::BMPSet", ptr %4, i32 0, i32 1
  %arraydecay4 = getelementptr inbounds [256 x i8], ptr %latin1Contains3, i64 0, i64 0
  call void @llvm.memcpy.p0.p0.i64(ptr align 8 %arraydecay, ptr align 8 %arraydecay4, i64 256, i1 false)
  br label %do.end

do.end:                                           ; preds = %do.body
  br label %do.body5

do.body5:                                         ; preds = %do.end
  %table7FF = getelementptr inbounds %"class.icu_75::BMPSet", ptr %this1, i32 0, i32 4
  %arraydecay6 = getelementptr inbounds [64 x i32], ptr %table7FF, i64 0, i64 0
  %5 = load ptr, ptr %otherBMPSet.addr, align 8
  %table7FF7 = getelementptr inbounds %"class.icu_75::BMPSet", ptr %5, i32 0, i32 4
  %arraydecay8 = getelementptr inbounds [64 x i32], ptr %table7FF7, i64 0, i64 0
  call void @llvm.memcpy.p0.p0.i64(ptr align 4 %arraydecay6, ptr align 4 %arraydecay8, i64 256, i1 false)
  br label %do.end9

do.end9:                                          ; preds = %do.body5
  br label %do.body10

do.body10:                                        ; preds = %do.end9
  %bmpBlockBits = getelementptr inbounds %"class.icu_75::BMPSet", ptr %this1, i32 0, i32 5
  %arraydecay11 = getelementptr inbounds [64 x i32], ptr %bmpBlockBits, i64 0, i64 0
  %6 = load ptr, ptr %otherBMPSet.addr, align 8
  %bmpBlockBits12 = getelementptr inbounds %"class.icu_75::BMPSet", ptr %6, i32 0, i32 5
  %arraydecay13 = getelementptr inbounds [64 x i32], ptr %bmpBlockBits12, i64 0, i64 0
  call void @llvm.memcpy.p0.p0.i64(ptr align 4 %arraydecay11, ptr align 4 %arraydecay13, i64 256, i1 false)
  br label %do.end14

do.end14:                                         ; preds = %do.body10
  br label %do.body15

do.body15:                                        ; preds = %do.end14
  %list4kStarts = getelementptr inbounds %"class.icu_75::BMPSet", ptr %this1, i32 0, i32 6
  %arraydecay16 = getelementptr inbounds [18 x i32], ptr %list4kStarts, i64 0, i64 0
  %7 = load ptr, ptr %otherBMPSet.addr, align 8
  %list4kStarts17 = getelementptr inbounds %"class.icu_75::BMPSet", ptr %7, i32 0, i32 6
  %arraydecay18 = getelementptr inbounds [18 x i32], ptr %list4kStarts17, i64 0, i64 0
  call void @llvm.memcpy.p0.p0.i64(ptr align 4 %arraydecay16, ptr align 4 %arraydecay18, i64 72, i1 false)
  br label %do.end19

do.end19:                                         ; preds = %do.body15
  ret void
}