; Function Attrs: mustprogress nofree norecurse nosync nounwind willreturn memory(argmem: readwrite) uwtable
define void @_ZN6icu_756BMPSetC2ERKS0_PKii(ptr nocapture noundef nonnull writeonly align 8 dereferenceable(868) %this, ptr nocapture noundef nonnull readonly align 8 dereferenceable(868) %otherBMPSet, ptr noundef %newParentList, i32 noundef %newParentListLength) unnamed_addr #5 align 2 {
entry:
  store ptr getelementptr inbounds ({ [5 x ptr] }, ptr @_ZTVN6icu_756BMPSetE, i64 0, i32 0, i64 2), ptr %this, align 8
  %containsFFFD = getelementptr inbounds i8, ptr %this, i64 264
  %containsFFFD2 = getelementptr inbounds i8, ptr %otherBMPSet, i64 264
  %0 = load i8, ptr %containsFFFD2, align 8
  store i8 %0, ptr %containsFFFD, align 8
  %list = getelementptr inbounds i8, ptr %this, i64 856
  store ptr %newParentList, ptr %list, align 8
  %listLength = getelementptr inbounds i8, ptr %this, i64 864
  store i32 %newParentListLength, ptr %listLength, align 8
  %latin1Contains = getelementptr inbounds i8, ptr %this, i64 8
  %latin1Contains3 = getelementptr inbounds i8, ptr %otherBMPSet, i64 8
  tail call void @llvm.memcpy.p0.p0.i64(ptr noundef nonnull align 8 dereferenceable(256) %latin1Contains, ptr noundef nonnull align 8 dereferenceable(256) %latin1Contains3, i64 256, i1 false)
  %table7FF = getelementptr inbounds i8, ptr %this, i64 268
  %table7FF7 = getelementptr inbounds i8, ptr %otherBMPSet, i64 268
  tail call void @llvm.memcpy.p0.p0.i64(ptr noundef nonnull align 4 dereferenceable(256) %table7FF, ptr noundef nonnull align 4 dereferenceable(256) %table7FF7, i64 256, i1 false)
  %bmpBlockBits = getelementptr inbounds i8, ptr %this, i64 524
  %bmpBlockBits12 = getelementptr inbounds i8, ptr %otherBMPSet, i64 524
  tail call void @llvm.memcpy.p0.p0.i64(ptr noundef nonnull align 4 dereferenceable(256) %bmpBlockBits, ptr noundef nonnull align 4 dereferenceable(256) %bmpBlockBits12, i64 256, i1 false)
  %list4kStarts = getelementptr inbounds i8, ptr %this, i64 780
  %list4kStarts17 = getelementptr inbounds i8, ptr %otherBMPSet, i64 780
  tail call void @llvm.memcpy.p0.p0.i64(ptr noundef nonnull align 4 dereferenceable(72) %list4kStarts, ptr noundef nonnull align 4 dereferenceable(72) %list4kStarts17, i64 72, i1 false)
  ret void
}